; Function Attrs: mustprogress uwtable
define hidden noundef zeroext i1 @_ZN4lean8is_classERKNS_16elab_environmentENS_4exprE(ptr noundef nonnull align 8 dereferenceable(8) %0, ptr noundef %1) local_unnamed_addr #0 {
  %3 = load ptr, ptr %1, align 8, !tbaa !3
  %4 = getelementptr i8, ptr %3, i64 4
  %.val.i.i.i.i10 = load i32, ptr %4, align 4
  %.mask.i11 = and i32 %.val.i.i.i.i10, -16777216
  %5 = icmp eq i32 %.mask.i11, 117440512
  br i1 %5, label %.lr.ph, label %._crit_edge

.lr.ph:                                           ; preds = %2, %_ZN4lean4expraSERKS0_.exit
  %6 = phi ptr [ %18, %_ZN4lean4expraSERKS0_.exit ], [ %3, %2 ]
  %7 = getelementptr inbounds nuw i8, ptr %6, i64 24
  %8 = load ptr, ptr %7, align 8, !tbaa !3
  %9 = ptrtoint ptr %8 to i64
  %10 = and i64 %9, 1
  %.not.i.i.i = icmp eq i64 %10, 0
  br i1 %.not.i.i.i, label %11, label %_ZN4lean3incEP11lean_object.exit.i.i

11:                                               ; preds = %.lr.ph
  %.val.i.i.i.i1 = load i32, ptr %8, align 4, !tbaa !8
  %12 = icmp sgt i32 %.val.i.i.i.i1, 0
  br i1 %12, label %13, label %15, !prof !11

13:                                               ; preds = %11
  %14 = add nuw nsw i32 %.val.i.i.i.i1, 1
  store i32 %14, ptr %8, align 4, !tbaa !8
  br label %_ZN4lean3incEP11lean_object.exit.i.i

15:                                               ; preds = %11
  %.not.i.i.i.i = icmp eq i32 %.val.i.i.i.i1, 0
  br i1 %.not.i.i.i.i, label %_ZN4lean3incEP11lean_object.exit.i.i, label %16

16:                                               ; preds = %15
  tail call void @lean_inc_ref_cold(ptr noundef nonnull %8)
  %.pre.i.i = load ptr, ptr %7, align 8, !tbaa !3
  %.pre = load ptr, ptr %1, align 8, !tbaa !3
  br label %_ZN4lean3incEP11lean_object.exit.i.i

_ZN4lean3incEP11lean_object.exit.i.i:             ; preds = %16, %15, %13, %.lr.ph
  %17 = phi ptr [ %6, %.lr.ph ], [ %6, %13 ], [ %6, %15 ], [ %.pre, %16 ]
  %18 = phi ptr [ %8, %.lr.ph ], [ %8, %13 ], [ %8, %15 ], [ %.pre.i.i, %16 ]
  %19 = ptrtoint ptr %17 to i64
  %20 = and i64 %19, 1
  %.not.i4.i.i = icmp eq i64 %20, 0
  br i1 %.not.i4.i.i, label %21, label %_ZN4lean4expraSERKS0_.exit

21:                                               ; preds = %_ZN4lean3incEP11lean_object.exit.i.i
  %22 = load i32, ptr %17, align 4, !tbaa !8
  %23 = icmp sgt i32 %22, 1
  br i1 %23, label %24, label %26, !prof !11

24:                                               ; preds = %21
  %25 = add nsw i32 %22, -1
  store i32 %25, ptr %17, align 4, !tbaa !8
  br label %_ZN4lean4expraSERKS0_.exit

26:                                               ; preds = %21
  %.not.i.i5.i.i = icmp eq i32 %22, 0
  br i1 %.not.i.i5.i.i, label %_ZN4lean4expraSERKS0_.exit, label %27

27:                                               ; preds = %26
  tail call void @lean_dec_ref_cold(ptr noundef nonnull %17)
  br label %_ZN4lean4expraSERKS0_.exit

_ZN4lean4expraSERKS0_.exit:                       ; preds = %_ZN4lean3incEP11lean_object.exit.i.i, %24, %26, %27
  store ptr %18, ptr %1, align 8, !tbaa !3
  %28 = getelementptr i8, ptr %18, i64 4
  %.val.i.i.i.i = load i32, ptr %28, align 4
  %.mask.i = and i32 %.val.i.i.i.i, -16777216
  %29 = icmp eq i32 %.mask.i, 117440512
  br i1 %29, label %.lr.ph, label %._crit_edge, !llvm.loop !21

._crit_edge:                                      ; preds = %_ZN4lean4expraSERKS0_.exit, %2
  %30 = tail call noundef nonnull align 8 dereferenceable(8) ptr @_ZN4lean10get_app_fnERKNS_4exprE(ptr noundef nonnull align 8 dereferenceable(8) %1)
  %31 = load ptr, ptr %30, align 8, !tbaa !3
  %32 = ptrtoint ptr %31 to i64
  %33 = and i64 %32, 1
  %.not.i.i.i2 = icmp eq i64 %33, 0
  br i1 %.not.i.i.i2, label %34, label %_ZN4lean3incEP11lean_object.exit.i.i3

34:                                               ; preds = %._crit_edge
  %.val.i.i.i.i6 = load i32, ptr %31, align 4, !tbaa !8
  %35 = icmp sgt i32 %.val.i.i.i.i6, 0
  br i1 %35, label %36, label %38, !prof !11

36:                                               ; preds = %34
  %37 = add nuw nsw i32 %.val.i.i.i.i6, 1
  store i32 %37, ptr %31, align 4, !tbaa !8
  br label %_ZN4lean3incEP11lean_object.exit.i.i3

38:                                               ; preds = %34
  %.not.i.i.i.i7 = icmp eq i32 %.val.i.i.i.i6, 0
  br i1 %.not.i.i.i.i7, label %_ZN4lean3incEP11lean_object.exit.i.i3, label %39

39:                                               ; preds = %38
  tail call void @lean_inc_ref_cold(ptr noundef nonnull %31)
  %.pre.i.i8 = load ptr, ptr %30, align 8, !tbaa !3
  br label %_ZN4lean3incEP11lean_object.exit.i.i3

_ZN4lean3incEP11lean_object.exit.i.i3:            ; preds = %39, %38, %36, %._crit_edge
  %40 = phi ptr [ %31, %._crit_edge ], [ %31, %36 ], [ %31, %38 ], [ %.pre.i.i8, %39 ]
  %41 = load ptr, ptr %1, align 8, !tbaa !3
  %42 = ptrtoint ptr %41 to i64
  %43 = and i64 %42, 1
  %.not.i4.i.i4 = icmp eq i64 %43, 0
  br i1 %.not.i4.i.i4, label %44, label %_ZN4lean4expraSERKS0_.exit9

44:                                               ; preds = %_ZN4lean3incEP11lean_object.exit.i.i3
  %45 = load i32, ptr %41, align 4, !tbaa !8
  %46 = icmp sgt i32 %45, 1
  br i1 %46, label %47, label %49, !prof !11

47:                                               ; preds = %44
  %48 = add nsw i32 %45, -1
  store i32 %48, ptr %41, align 4, !tbaa !8
  br label %_ZN4lean4expraSERKS0_.exit9

49:                                               ; preds = %44
  %.not.i.i5.i.i5 = icmp eq i32 %45, 0
  br i1 %.not.i.i5.i.i5, label %_ZN4lean4expraSERKS0_.exit9, label %50

50:                                               ; preds = %49
  tail call void @lean_dec_ref_cold(ptr noundef nonnull %41)
  br label %_ZN4lean4expraSERKS0_.exit9

_ZN4lean4expraSERKS0_.exit9:                      ; preds = %_ZN4lean3incEP11lean_object.exit.i.i3, %47, %49, %50
  store ptr %40, ptr %1, align 8, !tbaa !3
  %51 = getelementptr i8, ptr %40, i64 4
  %.val.i.i.i.i.i = load i32, ptr %51, align 4
  %.mask.i.i = and i32 %.val.i.i.i.i.i, -16777216
  %52 = icmp eq i32 %.mask.i.i, 67108864
  br i1 %52, label %53, label %56

53:                                               ; preds = %_ZN4lean4expraSERKS0_.exit9
  %54 = getelementptr inbounds nuw i8, ptr %40, i64 8
  %55 = tail call noundef zeroext i1 @_ZN4lean8is_classERKNS_16elab_environmentERKNS_4nameE(ptr noundef nonnull align 8 dereferenceable(8) %0, ptr noundef nonnull align 8 dereferenceable(8) %54)
  br label %56

56:                                               ; preds = %53, %_ZN4lean4expraSERKS0_.exit9
  %57 = phi i1 [ false, %_ZN4lean4expraSERKS0_.exit9 ], [ %55, %53 ]
  ret i1 %57
}